target datalayout = "e-m:e-p270:32:32-p271:32:32-p272:64:64-i64:64-i128:128-f80:128-n8:16:32:64-S128"
target triple = "x86_64-pc-linux-gnu"

%struct.jit_State = type { %struct.GCtrace, ptr, ptr, ptr, ptr, ptr, ptr, i32, i32, i32, i8, i8, %struct.IRType1, i8, %struct.FoldState, ptr, i32, i32, i32, i32, i32, i32, i32, [1 x i32], [5 x %union.TValue], [3 x %union.TValue], ptr, i32, i32, i32, i32, ptr, ptr, i32, i32, i8, ptr, i32, i32, i16, [101 x i16], [258 x i32], [15 x i32], [16 x ptr], [64 x %struct.HotPenalty], i32, [16 x %struct.BPropEntry], i32, %struct.ScEvEntry, ptr, i32, i32, i32, ptr, i32, i32, ptr, ptr, ptr, i64, i64, %union.TValue, ptr, i32, i32 }
%struct.GCtrace = type { %struct.GCRef, i8, i8, i16, i32, i32, %struct.GCRef, ptr, i32, i32, ptr, ptr, %struct.GCRef, %struct.MRef, i32, i32, ptr, i32, i16, i16, i16, i16, i16, i16, i16, i8, i8, i8, i8 }
%struct.GCRef = type { i64 }
%struct.MRef = type { i64 }
%struct.IRType1 = type { i8 }
%struct.FoldState = type { %union.IRIns, [2 x %union.IRIns], [2 x %union.IRIns] }
%union.IRIns = type { %struct.GCRef }
%struct.HotPenalty = type { %struct.MRef, i16, i16 }
%struct.BPropEntry = type { i16, i16, i32 }
%struct.ScEvEntry = type { %struct.MRef, i16, i16, i16, i16, %struct.IRType1, i8 }
%union.TValue = type { i64 }
%struct.anon.0 = type { i32, %struct.IRType1, i8, i8, i8 }

; Function Attrs: alwaysinline nounwind uwtable
define internal i32 @lj_getu32(ptr noundef %0) #6 {
  %2 = alloca ptr, align 8
  store ptr %0, ptr %2, align 8, !tbaa !34
  %3 = load ptr, ptr %2, align 8, !tbaa !34
  %4 = load i32, ptr %3, align 1, !tbaa !29
  ret i32 %4
}

; Function Attrs: alwaysinline nounwind uwtable
define internal zeroext i16 @lj_getu16(ptr noundef %0) #6 {
  %2 = alloca ptr, align 8
  store ptr %0, ptr %2, align 8, !tbaa !34
  %3 = load ptr, ptr %2, align 8, !tbaa !34
  %4 = load i16, ptr %3, align 1, !tbaa !29
  ret i16 %4
}

; Function Attrs: nounwind uwtable
define internal i32 @kfold_xload(ptr noundef %0, ptr noundef %1, ptr noundef %2) #0 {
  %4 = alloca i32, align 4
  %5 = alloca ptr, align 8
  %6 = alloca ptr, align 8
  %7 = alloca ptr, align 8
  %8 = alloca i32, align 4
  %9 = alloca i32, align 4
  store ptr %0, ptr %5, align 8, !tbaa !4
  store ptr %1, ptr %6, align 8, !tbaa !38
  store ptr %2, ptr %7, align 8, !tbaa !34
  call void @llvm.lifetime.start.p0(i64 4, ptr %8) #8
  %10 = load ptr, ptr %6, align 8, !tbaa !38
  %11 = getelementptr inbounds nuw %struct.anon.0, ptr %10, i32 0, i32 1
  %12 = getelementptr inbounds nuw %struct.IRType1, ptr %11, i32 0, i32 0
  %13 = load i8, ptr %12, align 4, !tbaa !29
  %14 = zext i8 %13 to i32
  %15 = and i32 %14, 31
  switch i32 %15, label %45 [
    i32 14, label %16
    i32 15, label %21
    i32 16, label %25
    i32 17, label %29
    i32 18, label %33
    i32 19, label %37
    i32 20, label %37
    i32 21, label %40
    i32 22, label %40
  ]

16:                                               ; preds = %3
  %17 = load ptr, ptr %5, align 8, !tbaa !4
  %18 = load ptr, ptr %7, align 8, !tbaa !34
  %19 = load i64, ptr %18, align 8, !tbaa !52
  %20 = call i32 @lj_ir_knum_u64(ptr noundef %17, i64 noundef %19)
  store i32 %20, ptr %4, align 4
  store i32 1, ptr %9, align 4
  br label %50

21:                                               ; preds = %3
  %22 = load ptr, ptr %7, align 8, !tbaa !34
  %23 = load i8, ptr %22, align 1, !tbaa !29
  %24 = sext i8 %23 to i32
  store i32 %24, ptr %8, align 4, !tbaa !30
  br label %46

25:                                               ; preds = %3
  %26 = load ptr, ptr %7, align 8, !tbaa !34
  %27 = load i8, ptr %26, align 1, !tbaa !29
  %28 = zext i8 %27 to i32
  store i32 %28, ptr %8, align 4, !tbaa !30
  br label %46

29:                                               ; preds = %3
  %30 = load ptr, ptr %7, align 8, !tbaa !34
  %31 = call zeroext i16 @lj_getu16(ptr noundef %30)
  %32 = sext i16 %31 to i32
  store i32 %32, ptr %8, align 4, !tbaa !30
  br label %46

33:                                               ; preds = %3
  %34 = load ptr, ptr %7, align 8, !tbaa !34
  %35 = call zeroext i16 @lj_getu16(ptr noundef %34)
  %36 = zext i16 %35 to i32
  store i32 %36, ptr %8, align 4, !tbaa !30
  br label %46

37:                                               ; preds = %3, %3
  %38 = load ptr, ptr %7, align 8, !tbaa !34
  %39 = call i32 @lj_getu32(ptr noundef %38)
  store i32 %39, ptr %8, align 4, !tbaa !30
  br label %46

40:                                               ; preds = %3, %3
  %41 = load ptr, ptr %5, align 8, !tbaa !4
  %42 = load ptr, ptr %7, align 8, !tbaa !34
  %43 = load i64, ptr %42, align 8, !tbaa !52
  %44 = call i32 @lj_ir_kint64(ptr noundef %41, i64 noundef %43)
  store i32 %44, ptr %4, align 4
  store i32 1, ptr %9, align 4
  br label %50

45:                                               ; preds = %3
  store i32 0, ptr %4, align 4
  store i32 1, ptr %9, align 4
  br label %50

46:                                               ; preds = %37, %33, %29, %25, %21
  %47 = load ptr, ptr %5, align 8, !tbaa !4
  %48 = load i32, ptr %8, align 4, !tbaa !30
  %49 = call i32 @lj_ir_kint(ptr noundef %47, i32 noundef %48)
  store i32 %49, ptr %4, align 4
  store i32 1, ptr %9, align 4
  br label %50

50:                                               ; preds = %46, %45, %40, %16
  call void @llvm.lifetime.end.p0(i64 4, ptr %8) #8
  %51 = load i32, ptr %4, align 4
  ret i32 %51
}

; Function Attrs: nounwind uwtable
define internal i32 @fold_xload_kptr(ptr noundef %0) #0 {
  %2 = alloca ptr, align 8
  %3 = alloca i32, align 4
  store ptr %0, ptr %2, align 8, !tbaa !4
  call void @llvm.lifetime.start.p0(i64 4, ptr %3) #8
  %4 = load ptr, ptr %2, align 8, !tbaa !4
  %5 = load ptr, ptr %2, align 8, !tbaa !4
  %6 = getelementptr inbounds nuw %struct.jit_State, ptr %5, i32 0, i32 14
  %7 = getelementptr inbounds nuw %struct.FoldState, ptr %6, i32 0, i32 0
  %8 = load ptr, ptr %2, align 8, !tbaa !4
  %9 = getelementptr inbounds nuw %struct.jit_State, ptr %8, i32 0, i32 14
  %10 = getelementptr inbounds nuw %struct.FoldState, ptr %9, i32 0, i32 1
  %11 = getelementptr inbounds [2 x %union.IRIns], ptr %10, i64 0, i64 1
  %12 = getelementptr inbounds nuw %struct.MRef, ptr %11, i32 0, i32 0
  %13 = load i64, ptr %12, align 8, !tbaa !29
  %14 = inttoptr i64 %13 to ptr
  %15 = call i32 @kfold_xload(ptr noundef %4, ptr noundef %7, ptr noundef %14)
  store i32 %15, ptr %3, align 4, !tbaa !30
  %16 = load i32, ptr %3, align 4, !tbaa !30
  %17 = icmp ne i32 %16, 0
  br i1 %17, label %18, label %20

18:                                               ; preds = %1
  %19 = load i32, ptr %3, align 4, !tbaa !30
  br label %21

20:                                               ; preds = %1
  br label %21

21:                                               ; preds = %20, %18
  %22 = phi i32 [ %19, %18 ], [ 0, %20 ]
  call void @llvm.lifetime.end.p0(i64 4, ptr %3) #8
  ret i32 %22
}