; Function Attrs: nounwind uwtable
define internal i32 @fold_xload_kptr(ptr noundef %0) #0 {
  %2 = getelementptr inbounds nuw i8, ptr %0, i64 200
  %3 = load i64, ptr %2, align 8, !tbaa !28
  %4 = inttoptr i64 %3 to ptr
  %5 = getelementptr i8, ptr %0, i64 188
  %.val = load i8, ptr %5, align 4, !tbaa !28
  %6 = and i8 %.val, 31
  switch i8 %6, label %kfold_xload.exit [
    i8 14, label %7
    i8 15, label %10
    i8 16, label %13
    i8 17, label %16
    i8 18, label %19
    i8 19, label %22
    i8 20, label %22
    i8 21, label %24
    i8 22, label %24
  ]

7:                                                ; preds = %1
  %8 = load i64, ptr %4, align 8, !tbaa !80
  %9 = tail call i32 @lj_ir_knum_u64(ptr noundef nonnull %0, i64 noundef %8) #12
  br label %kfold_xload.exit

10:                                               ; preds = %1
  %11 = load i8, ptr %4, align 1, !tbaa !28
  %12 = sext i8 %11 to i32
  br label %27

13:                                               ; preds = %1
  %14 = load i8, ptr %4, align 1, !tbaa !28
  %15 = zext i8 %14 to i32
  br label %27

16:                                               ; preds = %1
  %17 = load i16, ptr %4, align 1, !tbaa !28
  %18 = sext i16 %17 to i32
  br label %27

19:                                               ; preds = %1
  %20 = load i16, ptr %4, align 1, !tbaa !28
  %21 = zext i16 %20 to i32
  br label %27

22:                                               ; preds = %1, %1
  %23 = load i32, ptr %4, align 1, !tbaa !28
  br label %27

24:                                               ; preds = %1, %1
  %25 = load i64, ptr %4, align 8, !tbaa !80
  %26 = tail call i32 @lj_ir_kint64(ptr noundef nonnull %0, i64 noundef %25) #12
  br label %kfold_xload.exit

27:                                               ; preds = %22, %19, %16, %13, %10
  %.0.i = phi i32 [ %23, %22 ], [ %21, %19 ], [ %18, %16 ], [ %15, %13 ], [ %12, %10 ]
  %28 = tail call i32 @lj_ir_kint(ptr noundef nonnull %0, i32 noundef %.0.i) #12
  br label %kfold_xload.exit

kfold_xload.exit:                                 ; preds = %1, %7, %24, %27
  %.012.i = phi i32 [ %26, %24 ], [ %28, %27 ], [ %9, %7 ], [ 0, %1 ]
  ret i32 %.012.i
}